; Function Attrs: nounwind uwtable
define internal i32 @ftp_connect(ptr noundef %0, ptr noundef initializes((0, 1)) %1) #0 {
  %3 = getelementptr inbounds nuw i8, ptr %0, i64 24
  %4 = load ptr, ptr %3, align 8, !tbaa !107
  %5 = getelementptr inbounds nuw i8, ptr %4, i64 1056
  store i8 0, ptr %1, align 1, !tbaa !108
  tail call void @Curl_conncontrol(ptr noundef %4, i32 noundef 0) #10
  %6 = getelementptr inbounds nuw i8, ptr %4, i64 1112
  store i64 120000, ptr %6, align 8, !tbaa !152
  %7 = getelementptr inbounds nuw i8, ptr %4, i64 1200
  store ptr @ftp_statemachine, ptr %7, align 8, !tbaa !164
  %8 = getelementptr inbounds nuw i8, ptr %4, i64 1208
  store ptr @ftp_endofresp, ptr %8, align 8, !tbaa !165
  %9 = getelementptr inbounds nuw i8, ptr %4, i64 928
  %10 = load ptr, ptr %9, align 8, !tbaa !166
  %11 = getelementptr inbounds nuw i8, ptr %10, i64 148
  %12 = load i32, ptr %11, align 4, !tbaa !167
  %13 = and i32 %12, 1
  %.not = icmp eq i32 %13, 0
  br i1 %.not, label %20, label %14

14:                                               ; preds = %2
  %15 = tail call i32 @Curl_conn_connect(ptr noundef nonnull %0, i32 noundef 0, i1 noundef zeroext true, ptr noundef nonnull %1) #10
  %.not20 = icmp eq i32 %15, 0
  br i1 %.not20, label %16, label %49

16:                                               ; preds = %14
  %17 = getelementptr inbounds nuw i8, ptr %4, i64 920
  %18 = load i64, ptr %17, align 8
  %19 = or i64 %18, 262144
  store i64 %19, ptr %17, align 8
  br label %20

20:                                               ; preds = %16, %2
  tail call void @Curl_pp_init(ptr noundef nonnull %5) #10
  %21 = load ptr, ptr %3, align 8, !tbaa !107
  %22 = getelementptr inbounds nuw i8, ptr %21, i64 1326
  %23 = load i8, ptr %22, align 2, !tbaa !138
  %.not21 = icmp eq i8 %23, 1
  br i1 %.not21, label %_ftp_state.exit, label %24

24:                                               ; preds = %20
  %25 = getelementptr inbounds nuw i8, ptr %0, i64 2562
  %26 = load i64, ptr %25, align 2
  %27 = and i64 %26, 134217728
  %.not.i = icmp eq i64 %27, 0
  br i1 %.not.i, label %_ftp_state.exit, label %28

28:                                               ; preds = %24
  %29 = getelementptr inbounds nuw i8, ptr %0, i64 4712
  %30 = load ptr, ptr %29, align 8, !tbaa !104
  %.not20.i = icmp eq ptr %30, null
  br i1 %.not20.i, label %37, label %31

31:                                               ; preds = %28
  %32 = getelementptr inbounds nuw i8, ptr %30, i64 8
  %33 = load i32, ptr %32, align 8, !tbaa !105
  %34 = icmp sgt i32 %33, 0
  %35 = load i32, ptr getelementptr inbounds nuw (i8, ptr @Curl_trc_feat_ftp, i64 8), align 8
  %36 = icmp sgt i32 %35, 0
  %or.cond.i = select i1 %34, i1 %36, i1 false
  br i1 %or.cond.i, label %38, label %_ftp_state.exit

37:                                               ; preds = %28
  %.old.i = load i32, ptr getelementptr inbounds nuw (i8, ptr @Curl_trc_feat_ftp, i64 8), align 8, !tbaa !105
  %.old1.i = icmp sgt i32 %.old.i, 0
  br i1 %.old1.i, label %38, label %_ftp_state.exit

38:                                               ; preds = %37, %31
  %39 = zext i8 %23 to i64
  %40 = getelementptr inbounds nuw [35 x ptr], ptr @ftp_state_names, i64 0, i64 %39
  %41 = load ptr, ptr %40, align 8, !tbaa !8
  tail call void (ptr, ptr, ...) @Curl_trc_ftp(ptr noundef nonnull %0, ptr noundef nonnull @.str.7, ptr noundef %41, ptr noundef nonnull @.str.10) #10
  %.pre = load ptr, ptr %3, align 8, !tbaa !107
  br label %_ftp_state.exit

_ftp_state.exit:                                  ; preds = %20, %24, %31, %37, %38
  %42 = phi ptr [ %21, %20 ], [ %21, %24 ], [ %21, %31 ], [ %21, %37 ], [ %.pre, %38 ]
  store i8 1, ptr %22, align 2, !tbaa !138
  %43 = getelementptr inbounds nuw i8, ptr %42, i64 1056
  %44 = tail call i32 @Curl_pp_statemach(ptr noundef nonnull %0, ptr noundef nonnull %43, i1 noundef zeroext false, i1 noundef zeroext false) #10
  %45 = getelementptr inbounds nuw i8, ptr %42, i64 1326
  %46 = load i8, ptr %45, align 2, !tbaa !138
  %47 = icmp eq i8 %46, 0
  %48 = zext i1 %47 to i8
  store i8 %48, ptr %1, align 1, !tbaa !108
  br label %49

49:                                               ; preds = %14, %_ftp_state.exit
  %.0 = phi i32 [ %44, %_ftp_state.exit ], [ %15, %14 ]
  ret i32 %.0
}